target datalayout = "e-m:e-p270:32:32-p271:32:32-p272:64:64-i64:64-i128:128-f80:128-n8:16:32:64-S128"
target triple = "x86_64-pc-linux-gnu"

%struct._stat_tap_ui = type { i32, ptr, ptr, ptr, i64, ptr }
%struct._stat_cmd_arg = type { ptr, ptr, ptr, ptr }

@stat_cmd_arg_list = internal global ptr null, align 8

; Function Attrs: null_pointer_is_valid sspstrong uwtable
define void @register_stat_tap_ui(ptr noundef %0, ptr noundef %1) #0 {
  %3 = alloca ptr, align 8
  %4 = alloca ptr, align 8
  %5 = alloca ptr, align 8
  %6 = alloca i32, align 4
  store ptr %0, ptr %3, align 8
  store ptr %1, ptr %4, align 8
  call void @llvm.lifetime.start.p0(i64 8, ptr %5) #13
  %7 = load ptr, ptr @stat_cmd_arg_list, align 8
  %8 = icmp eq ptr %7, null
  br i1 %8, label %9, label %12

9:                                                ; preds = %2
  %10 = call ptr @wmem_epan_scope()
  %11 = call noalias ptr @wmem_list_new(ptr noundef %10)
  store ptr %11, ptr @stat_cmd_arg_list, align 8
  br label %12

12:                                               ; preds = %9, %2
  %13 = load ptr, ptr @stat_cmd_arg_list, align 8
  %14 = load ptr, ptr %3, align 8
  %15 = getelementptr inbounds nuw %struct._stat_tap_ui, ptr %14, i32 0, i32 2
  %16 = load ptr, ptr %15, align 8
  %17 = call ptr @wmem_list_find_custom(ptr noundef %13, ptr noundef %16, ptr noundef @search_duplicate)
  %18 = icmp ne ptr %17, null
  br i1 %18, label %19, label %20

19:                                               ; preds = %12
  store i32 1, ptr %6, align 4
  br label %40

20:                                               ; preds = %12
  %21 = call ptr @wmem_epan_scope()
  %22 = call noalias ptr @wmem_alloc(ptr noundef %21, i64 noundef 32) #14
  store ptr %22, ptr %5, align 8
  %23 = call ptr @wmem_epan_scope()
  %24 = load ptr, ptr %3, align 8
  %25 = getelementptr inbounds nuw %struct._stat_tap_ui, ptr %24, i32 0, i32 2
  %26 = load ptr, ptr %25, align 8
  %27 = call noalias ptr @wmem_strdup(ptr noundef %23, ptr noundef %26)
  %28 = load ptr, ptr %5, align 8
  %29 = getelementptr inbounds nuw %struct._stat_cmd_arg, ptr %28, i32 0, i32 1
  store ptr %27, ptr %29, align 8
  %30 = load ptr, ptr %3, align 8
  %31 = getelementptr inbounds nuw %struct._stat_tap_ui, ptr %30, i32 0, i32 3
  %32 = load ptr, ptr %31, align 8
  %33 = load ptr, ptr %5, align 8
  %34 = getelementptr inbounds nuw %struct._stat_cmd_arg, ptr %33, i32 0, i32 2
  store ptr %32, ptr %34, align 8
  %35 = load ptr, ptr %4, align 8
  %36 = load ptr, ptr %5, align 8
  %37 = getelementptr inbounds nuw %struct._stat_cmd_arg, ptr %36, i32 0, i32 3
  store ptr %35, ptr %37, align 8
  %38 = load ptr, ptr @stat_cmd_arg_list, align 8
  %39 = load ptr, ptr %5, align 8
  call void @wmem_list_insert_sorted(ptr noundef %38, ptr noundef %39, ptr noundef @sort_by_name)
  store i32 0, ptr %6, align 4
  br label %40

40:                                               ; preds = %20, %19
  call void @llvm.lifetime.end.p0(i64 8, ptr %5) #13
  %41 = load i32, ptr %6, align 4
  switch i32 %41, label %43 [
    i32 0, label %42
    i32 1, label %42
  ]

42:                                               ; preds = %40, %40
  ret void

43:                                               ; preds = %40
  unreachable
}