; Function Attrs: null_pointer_is_valid sspstrong uwtable
define void @register_stat_tap_ui(ptr noundef readonly captures(none) %0, ptr noundef %1) local_unnamed_addr #0 {
  %3 = load ptr, ptr @stat_cmd_arg_list, align 8
  %4 = icmp eq ptr %3, null
  br i1 %4, label %5, label %8

5:                                                ; preds = %2
  %6 = tail call ptr @wmem_epan_scope()
  %7 = tail call noalias ptr @wmem_list_new(ptr noundef %6)
  store ptr %7, ptr @stat_cmd_arg_list, align 8
  br label %8

8:                                                ; preds = %5, %2
  %9 = phi ptr [ %7, %5 ], [ %3, %2 ]
  %10 = getelementptr inbounds nuw i8, ptr %0, i64 16
  %11 = load ptr, ptr %10, align 8
  %12 = tail call ptr @wmem_list_find_custom(ptr noundef %9, ptr noundef %11, ptr noundef nonnull @search_duplicate)
  %.not = icmp eq ptr %12, null
  br i1 %.not, label %13, label %25

13:                                               ; preds = %8
  %14 = tail call ptr @wmem_epan_scope()
  %15 = tail call noalias dereferenceable_or_null(32) ptr @wmem_alloc(ptr noundef %14, i64 noundef 32) #10
  %16 = tail call ptr @wmem_epan_scope()
  %17 = load ptr, ptr %10, align 8
  %18 = tail call noalias ptr @wmem_strdup(ptr noundef %16, ptr noundef %17)
  %19 = getelementptr inbounds nuw i8, ptr %15, i64 8
  store ptr %18, ptr %19, align 8
  %20 = getelementptr inbounds nuw i8, ptr %0, i64 24
  %21 = load ptr, ptr %20, align 8
  %22 = getelementptr inbounds nuw i8, ptr %15, i64 16
  store ptr %21, ptr %22, align 8
  %23 = getelementptr inbounds nuw i8, ptr %15, i64 24
  store ptr %1, ptr %23, align 8
  %24 = load ptr, ptr @stat_cmd_arg_list, align 8
  tail call void @wmem_list_insert_sorted(ptr noundef %24, ptr noundef %15, ptr noundef nonnull @sort_by_name)
  br label %25

25:                                               ; preds = %8, %13
  ret void
}